target datalayout = "e-m:e-p270:32:32-p271:32:32-p272:64:64-i64:64-i128:128-f80:128-n8:16:32:64-S128"
target triple = "x86_64-pc-linux-gnu"

@mainctx = internal global ptr null, align 8
@.str.28 = private unnamed_addr constant [34 x i8] c"../openssl/test/evp_extra_test2.c\00", align 1
@.str.31 = private unnamed_addr constant [46 x i8] c"sha256 = EVP_MD_fetch(NULL, \22SHA2-256\22, NULL)\00", align 1
@.str.32 = private unnamed_addr constant [9 x i8] c"SHA2-256\00", align 1
@.str.33 = private unnamed_addr constant [44 x i8] c"oldctx = OSSL_LIB_CTX_set0_default(mainctx)\00", align 1
@.str.34 = private unnamed_addr constant [34 x i8] c"OSSL_LIB_CTX_set0_default(oldctx)\00", align 1
@.str.35 = private unnamed_addr constant [8 x i8] c"mainctx\00", align 1

; Function Attrs: nounwind uwtable
define internal i32 @test_alternative_default() #0 {
  %1 = alloca ptr, align 8
  %2 = alloca ptr, align 8
  %3 = alloca i32, align 4
  call void @llvm.lifetime.start.p0(i64 8, ptr %1) #7
  call void @llvm.lifetime.start.p0(i64 8, ptr %2) #7
  call void @llvm.lifetime.start.p0(i64 4, ptr %3) #7
  store i32 0, ptr %3, align 4, !tbaa !11
  %4 = call ptr @EVP_MD_fetch(ptr noundef null, ptr noundef @.str.32, ptr noundef null)
  store ptr %4, ptr %2, align 8, !tbaa !9
  %5 = call i32 @test_ptr_null(ptr noundef @.str.28, i32 noundef 689, ptr noundef @.str.31, ptr noundef %4)
  %6 = icmp ne i32 %5, 0
  br i1 %6, label %8, label %7

7:                                                ; preds = %0
  br label %31

8:                                                ; preds = %0
  %9 = load ptr, ptr @mainctx, align 8, !tbaa !4
  %10 = call ptr @OSSL_LIB_CTX_set0_default(ptr noundef %9)
  store ptr %10, ptr %1, align 8, !tbaa !4
  %11 = call i32 @test_ptr(ptr noundef @.str.28, i32 noundef 696, ptr noundef @.str.33, ptr noundef %10)
  %12 = icmp ne i32 %11, 0
  br i1 %12, label %13, label %17

13:                                               ; preds = %8
  %14 = call ptr @EVP_MD_fetch(ptr noundef null, ptr noundef @.str.32, ptr noundef null)
  store ptr %14, ptr %2, align 8, !tbaa !9
  %15 = call i32 @test_ptr(ptr noundef @.str.28, i32 noundef 697, ptr noundef @.str.31, ptr noundef %14)
  %16 = icmp ne i32 %15, 0
  br i1 %16, label %18, label %17

17:                                               ; preds = %13, %8
  br label %31

18:                                               ; preds = %13
  %19 = load ptr, ptr %2, align 8, !tbaa !9
  call void @EVP_MD_free(ptr noundef %19)
  store ptr null, ptr %2, align 8, !tbaa !9
  %20 = load ptr, ptr %1, align 8, !tbaa !4
  %21 = call ptr @OSSL_LIB_CTX_set0_default(ptr noundef %20)
  %22 = load ptr, ptr @mainctx, align 8, !tbaa !4
  %23 = call i32 @test_ptr_eq(ptr noundef @.str.28, i32 noundef 706, ptr noundef @.str.34, ptr noundef @.str.35, ptr noundef %21, ptr noundef %22)
  %24 = icmp ne i32 %23, 0
  br i1 %24, label %25, label %29

25:                                               ; preds = %18
  %26 = call ptr @EVP_MD_fetch(ptr noundef null, ptr noundef @.str.32, ptr noundef null)
  store ptr %26, ptr %2, align 8, !tbaa !9
  %27 = call i32 @test_ptr_null(ptr noundef @.str.28, i32 noundef 707, ptr noundef @.str.31, ptr noundef %26)
  %28 = icmp ne i32 %27, 0
  br i1 %28, label %30, label %29

29:                                               ; preds = %25, %18
  br label %31

30:                                               ; preds = %25
  store i32 1, ptr %3, align 4, !tbaa !11
  br label %31

31:                                               ; preds = %30, %29, %17, %7
  %32 = load ptr, ptr %2, align 8, !tbaa !9
  call void @EVP_MD_free(ptr noundef %32)
  %33 = load i32, ptr %3, align 4, !tbaa !11
  call void @llvm.lifetime.end.p0(i64 4, ptr %3) #7
  call void @llvm.lifetime.end.p0(i64 8, ptr %2) #7
  call void @llvm.lifetime.end.p0(i64 8, ptr %1) #7
  ret i32 %33
}