; Function Attrs: nounwind uwtable
define internal range(i32 0, 2) i32 @test_alternative_default() #0 {
  %1 = tail call ptr @EVP_MD_fetch(ptr noundef null, ptr noundef nonnull @.str.32, ptr noundef null) #7
  %2 = tail call i32 @test_ptr_null(ptr noundef nonnull @.str.28, i32 noundef 689, ptr noundef nonnull @.str.31, ptr noundef %1) #7
  %.not = icmp eq i32 %2, 0
  br i1 %.not, label %17, label %3

3:                                                ; preds = %0
  %4 = load ptr, ptr @mainctx, align 8, !tbaa !4
  %5 = tail call ptr @OSSL_LIB_CTX_set0_default(ptr noundef %4) #7
  %6 = tail call i32 @test_ptr(ptr noundef nonnull @.str.28, i32 noundef 696, ptr noundef nonnull @.str.33, ptr noundef %5) #7
  %.not4 = icmp eq i32 %6, 0
  br i1 %.not4, label %17, label %7

7:                                                ; preds = %3
  %8 = tail call ptr @EVP_MD_fetch(ptr noundef null, ptr noundef nonnull @.str.32, ptr noundef null) #7
  %9 = tail call i32 @test_ptr(ptr noundef nonnull @.str.28, i32 noundef 697, ptr noundef nonnull @.str.31, ptr noundef %8) #7
  %.not5 = icmp eq i32 %9, 0
  br i1 %.not5, label %17, label %10

10:                                               ; preds = %7
  tail call void @EVP_MD_free(ptr noundef %8) #7
  %11 = tail call ptr @OSSL_LIB_CTX_set0_default(ptr noundef %5) #7
  %12 = load ptr, ptr @mainctx, align 8, !tbaa !4
  %13 = tail call i32 @test_ptr_eq(ptr noundef nonnull @.str.28, i32 noundef 706, ptr noundef nonnull @.str.34, ptr noundef nonnull @.str.35, ptr noundef %11, ptr noundef %12) #7
  %.not6 = icmp eq i32 %13, 0
  br i1 %.not6, label %17, label %14

14:                                               ; preds = %10
  %15 = tail call ptr @EVP_MD_fetch(ptr noundef null, ptr noundef nonnull @.str.32, ptr noundef null) #7
  %16 = tail call i32 @test_ptr_null(ptr noundef nonnull @.str.28, i32 noundef 707, ptr noundef nonnull @.str.31, ptr noundef %15) #7
  %.not7 = icmp ne i32 %16, 0
  %spec.select = zext i1 %.not7 to i32
  br label %17

17:                                               ; preds = %14, %10, %3, %7, %0
  %.03 = phi ptr [ null, %10 ], [ %8, %7 ], [ %1, %3 ], [ %1, %0 ], [ %15, %14 ]
  %.0 = phi i32 [ 0, %10 ], [ 0, %7 ], [ 0, %3 ], [ 0, %0 ], [ %spec.select, %14 ]
  tail call void @EVP_MD_free(ptr noundef %.03) #7
  ret i32 %.0
}